
test.elf:     file format elf32-littleriscv


Disassembly of section .text:

00000000 <_start>:
       0:	10000537          	lui	a0,0x10000
       4:	00001597          	auipc	a1,0x1
       8:	06058593          	addi	a1,a1,96 # 1064 <hello>
       c:	038000ef          	jal	ra,44 <print_str>
      10:	00000317          	auipc	t1,0x0
      14:	01430313          	addi	t1,t1,20 # 24 <trap>
      18:	30531073          	csrrw	zero,mtvec,t1
      1c:	00000073          	ecall
      20:	03c0006f          	jal	zero,5c <end>

00000024 <trap>:
      24:	10000537          	lui	a0,0x10000
      28:	00001597          	auipc	a1,0x1
      2c:	04958593          	addi	a1,a1,73 # 1071 <hello_exc>
      30:	014000ef          	jal	ra,44 <print_str>
      34:	34102373          	csrrs	t1,mepc,zero
      38:	00430313          	addi	t1,t1,4
      3c:	34131073          	csrrw	zero,mepc,t1
      40:	30200073          	mret

00000044 <print_str>:
      44:	0005c283          	lbu	t0,0(a1)
      48:	00028863          	beq	t0,zero,58 <print_str_ret>
      4c:	00550023          	sb	t0,0(a0) # 10000000 <hello_exc+0xfffef8f>
      50:	00158593          	addi	a1,a1,1
      54:	ff1ff06f          	jal	zero,44 <print_str>

00000058 <print_str_ret>:
      58:	00008067          	jalr	zero,0(ra)

0000005c <end>:
      5c:	00000013          	addi	zero,zero,0
      60:	00000013          	addi	zero,zero,0
      64:	00000013          	addi	zero,zero,0
      68:	00000013          	addi	zero,zero,0
      6c:	00000013          	addi	zero,zero,0
      70:	00000013          	addi	zero,zero,0
      74:	00000013          	addi	zero,zero,0
      78:	00000013          	addi	zero,zero,0
      7c:	00000013          	addi	zero,zero,0
      80:	00000013          	addi	zero,zero,0
      84:	00000013          	addi	zero,zero,0
      88:	00000013          	addi	zero,zero,0
      8c:	00000013          	addi	zero,zero,0
      90:	00000013          	addi	zero,zero,0
      94:	00000013          	addi	zero,zero,0
      98:	00000013          	addi	zero,zero,0
      9c:	00000013          	addi	zero,zero,0
      a0:	00000013          	addi	zero,zero,0
      a4:	00000013          	addi	zero,zero,0
      a8:	00000013          	addi	zero,zero,0
      ac:	00000013          	addi	zero,zero,0
      b0:	00000013          	addi	zero,zero,0
      b4:	00000013          	addi	zero,zero,0
      b8:	00000013          	addi	zero,zero,0
      bc:	00000013          	addi	zero,zero,0
      c0:	00000013          	addi	zero,zero,0
      c4:	00000013          	addi	zero,zero,0
      c8:	00000013          	addi	zero,zero,0
      cc:	00000013          	addi	zero,zero,0
      d0:	00000013          	addi	zero,zero,0
      d4:	00000013          	addi	zero,zero,0
      d8:	00000013          	addi	zero,zero,0
      dc:	00000013          	addi	zero,zero,0
      e0:	00000013          	addi	zero,zero,0
      e4:	00000013          	addi	zero,zero,0
      e8:	00000013          	addi	zero,zero,0
      ec:	00000013          	addi	zero,zero,0
      f0:	00000013          	addi	zero,zero,0
      f4:	00000013          	addi	zero,zero,0
      f8:	00000013          	addi	zero,zero,0
      fc:	00000013          	addi	zero,zero,0
     100:	00000013          	addi	zero,zero,0
     104:	00000013          	addi	zero,zero,0
     108:	00000013          	addi	zero,zero,0
     10c:	00000013          	addi	zero,zero,0
     110:	00000013          	addi	zero,zero,0
     114:	00000013          	addi	zero,zero,0
     118:	00000013          	addi	zero,zero,0
     11c:	00000013          	addi	zero,zero,0
     120:	00000013          	addi	zero,zero,0
     124:	00000013          	addi	zero,zero,0
     128:	00000013          	addi	zero,zero,0
     12c:	00000013          	addi	zero,zero,0
     130:	00000013          	addi	zero,zero,0
     134:	00000013          	addi	zero,zero,0
     138:	00000013          	addi	zero,zero,0
     13c:	00000013          	addi	zero,zero,0
     140:	00000013          	addi	zero,zero,0
     144:	00000013          	addi	zero,zero,0
     148:	00000013          	addi	zero,zero,0
     14c:	00000013          	addi	zero,zero,0
     150:	00000013          	addi	zero,zero,0
     154:	00000013          	addi	zero,zero,0
     158:	00000013          	addi	zero,zero,0
     15c:	00000013          	addi	zero,zero,0
     160:	00000013          	addi	zero,zero,0
     164:	00000013          	addi	zero,zero,0
     168:	00000013          	addi	zero,zero,0
     16c:	00000013          	addi	zero,zero,0
     170:	00000013          	addi	zero,zero,0
     174:	00000013          	addi	zero,zero,0
     178:	00000013          	addi	zero,zero,0
     17c:	00000013          	addi	zero,zero,0
     180:	00000013          	addi	zero,zero,0
     184:	00000013          	addi	zero,zero,0
     188:	00000013          	addi	zero,zero,0
     18c:	00000013          	addi	zero,zero,0
     190:	00000013          	addi	zero,zero,0
     194:	00000013          	addi	zero,zero,0
     198:	00000013          	addi	zero,zero,0
     19c:	00000013          	addi	zero,zero,0
     1a0:	00000013          	addi	zero,zero,0
     1a4:	00000013          	addi	zero,zero,0
     1a8:	00000013          	addi	zero,zero,0
     1ac:	00000013          	addi	zero,zero,0
     1b0:	00000013          	addi	zero,zero,0
     1b4:	00000013          	addi	zero,zero,0
     1b8:	00000013          	addi	zero,zero,0
     1bc:	00000013          	addi	zero,zero,0
     1c0:	00000013          	addi	zero,zero,0
     1c4:	00000013          	addi	zero,zero,0
     1c8:	00000013          	addi	zero,zero,0
     1cc:	00000013          	addi	zero,zero,0
     1d0:	00000013          	addi	zero,zero,0
     1d4:	00000013          	addi	zero,zero,0
     1d8:	00000013          	addi	zero,zero,0
     1dc:	00000013          	addi	zero,zero,0
     1e0:	00000013          	addi	zero,zero,0
     1e4:	00000013          	addi	zero,zero,0
     1e8:	00000013          	addi	zero,zero,0
     1ec:	00000013          	addi	zero,zero,0
     1f0:	00000013          	addi	zero,zero,0
     1f4:	00000013          	addi	zero,zero,0
     1f8:	00000013          	addi	zero,zero,0
     1fc:	00000013          	addi	zero,zero,0
     200:	00000013          	addi	zero,zero,0
     204:	00000013          	addi	zero,zero,0
     208:	00000013          	addi	zero,zero,0
     20c:	00000013          	addi	zero,zero,0
     210:	00000013          	addi	zero,zero,0
     214:	00000013          	addi	zero,zero,0
     218:	00000013          	addi	zero,zero,0
     21c:	00000013          	addi	zero,zero,0
     220:	00000013          	addi	zero,zero,0
     224:	00000013          	addi	zero,zero,0
     228:	00000013          	addi	zero,zero,0
     22c:	00000013          	addi	zero,zero,0
     230:	00000013          	addi	zero,zero,0
     234:	00000013          	addi	zero,zero,0
     238:	00000013          	addi	zero,zero,0
     23c:	00000013          	addi	zero,zero,0
     240:	00000013          	addi	zero,zero,0
     244:	00000013          	addi	zero,zero,0
     248:	00000013          	addi	zero,zero,0
     24c:	00000013          	addi	zero,zero,0
     250:	00000013          	addi	zero,zero,0
     254:	00000013          	addi	zero,zero,0
     258:	00000013          	addi	zero,zero,0
     25c:	00000013          	addi	zero,zero,0
     260:	00000013          	addi	zero,zero,0
     264:	00000013          	addi	zero,zero,0
     268:	00000013          	addi	zero,zero,0
     26c:	00000013          	addi	zero,zero,0
     270:	00000013          	addi	zero,zero,0
     274:	00000013          	addi	zero,zero,0
     278:	00000013          	addi	zero,zero,0
     27c:	00000013          	addi	zero,zero,0
     280:	00000013          	addi	zero,zero,0
     284:	00000013          	addi	zero,zero,0
     288:	00000013          	addi	zero,zero,0
     28c:	00000013          	addi	zero,zero,0
     290:	00000013          	addi	zero,zero,0
     294:	00000013          	addi	zero,zero,0
     298:	00000013          	addi	zero,zero,0
     29c:	00000013          	addi	zero,zero,0
     2a0:	00000013          	addi	zero,zero,0
     2a4:	00000013          	addi	zero,zero,0
     2a8:	00000013          	addi	zero,zero,0
     2ac:	00000013          	addi	zero,zero,0
     2b0:	00000013          	addi	zero,zero,0
     2b4:	00000013          	addi	zero,zero,0
     2b8:	00000013          	addi	zero,zero,0
     2bc:	00000013          	addi	zero,zero,0
     2c0:	00000013          	addi	zero,zero,0
     2c4:	00000013          	addi	zero,zero,0
     2c8:	00000013          	addi	zero,zero,0
     2cc:	00000013          	addi	zero,zero,0
     2d0:	00000013          	addi	zero,zero,0
     2d4:	00000013          	addi	zero,zero,0
     2d8:	00000013          	addi	zero,zero,0
     2dc:	00000013          	addi	zero,zero,0
     2e0:	00000013          	addi	zero,zero,0
     2e4:	00000013          	addi	zero,zero,0
     2e8:	00000013          	addi	zero,zero,0
     2ec:	00000013          	addi	zero,zero,0
     2f0:	00000013          	addi	zero,zero,0
     2f4:	00000013          	addi	zero,zero,0
     2f8:	00000013          	addi	zero,zero,0
     2fc:	00000013          	addi	zero,zero,0
     300:	00000013          	addi	zero,zero,0
     304:	00000013          	addi	zero,zero,0
     308:	00000013          	addi	zero,zero,0
     30c:	00000013          	addi	zero,zero,0
     310:	00000013          	addi	zero,zero,0
     314:	00000013          	addi	zero,zero,0
     318:	00000013          	addi	zero,zero,0
     31c:	00000013          	addi	zero,zero,0
     320:	00000013          	addi	zero,zero,0
     324:	00000013          	addi	zero,zero,0
     328:	00000013          	addi	zero,zero,0
     32c:	00000013          	addi	zero,zero,0
     330:	00000013          	addi	zero,zero,0
     334:	00000013          	addi	zero,zero,0
     338:	00000013          	addi	zero,zero,0
     33c:	00000013          	addi	zero,zero,0
     340:	00000013          	addi	zero,zero,0
     344:	00000013          	addi	zero,zero,0
     348:	00000013          	addi	zero,zero,0
     34c:	00000013          	addi	zero,zero,0
     350:	00000013          	addi	zero,zero,0
     354:	00000013          	addi	zero,zero,0
     358:	00000013          	addi	zero,zero,0
     35c:	00000013          	addi	zero,zero,0
     360:	00000013          	addi	zero,zero,0
     364:	00000013          	addi	zero,zero,0
     368:	00000013          	addi	zero,zero,0
     36c:	00000013          	addi	zero,zero,0
     370:	00000013          	addi	zero,zero,0
     374:	00000013          	addi	zero,zero,0
     378:	00000013          	addi	zero,zero,0
     37c:	00000013          	addi	zero,zero,0
     380:	00000013          	addi	zero,zero,0
     384:	00000013          	addi	zero,zero,0
     388:	00000013          	addi	zero,zero,0
     38c:	00000013          	addi	zero,zero,0
     390:	00000013          	addi	zero,zero,0
     394:	00000013          	addi	zero,zero,0
     398:	00000013          	addi	zero,zero,0
     39c:	00000013          	addi	zero,zero,0
     3a0:	00000013          	addi	zero,zero,0
     3a4:	00000013          	addi	zero,zero,0
     3a8:	00000013          	addi	zero,zero,0
     3ac:	00000013          	addi	zero,zero,0
     3b0:	00000013          	addi	zero,zero,0
     3b4:	00000013          	addi	zero,zero,0
     3b8:	00000013          	addi	zero,zero,0
     3bc:	00000013          	addi	zero,zero,0
     3c0:	00000013          	addi	zero,zero,0
     3c4:	00000013          	addi	zero,zero,0
     3c8:	00000013          	addi	zero,zero,0
     3cc:	00000013          	addi	zero,zero,0
     3d0:	00000013          	addi	zero,zero,0
     3d4:	00000013          	addi	zero,zero,0
     3d8:	00000013          	addi	zero,zero,0
     3dc:	00000013          	addi	zero,zero,0
     3e0:	00000013          	addi	zero,zero,0
     3e4:	00000013          	addi	zero,zero,0
     3e8:	00000013          	addi	zero,zero,0
     3ec:	00000013          	addi	zero,zero,0
     3f0:	00000013          	addi	zero,zero,0
     3f4:	00000013          	addi	zero,zero,0
     3f8:	00000013          	addi	zero,zero,0
     3fc:	00000013          	addi	zero,zero,0
     400:	00000013          	addi	zero,zero,0
     404:	00000013          	addi	zero,zero,0
     408:	00000013          	addi	zero,zero,0
     40c:	00000013          	addi	zero,zero,0
     410:	00000013          	addi	zero,zero,0
     414:	00000013          	addi	zero,zero,0
     418:	00000013          	addi	zero,zero,0
     41c:	00000013          	addi	zero,zero,0
     420:	00000013          	addi	zero,zero,0
     424:	00000013          	addi	zero,zero,0
     428:	00000013          	addi	zero,zero,0
     42c:	00000013          	addi	zero,zero,0
     430:	00000013          	addi	zero,zero,0
     434:	00000013          	addi	zero,zero,0
     438:	00000013          	addi	zero,zero,0
     43c:	00000013          	addi	zero,zero,0
     440:	00000013          	addi	zero,zero,0
     444:	00000013          	addi	zero,zero,0
     448:	00000013          	addi	zero,zero,0
     44c:	00000013          	addi	zero,zero,0
     450:	00000013          	addi	zero,zero,0
     454:	00000013          	addi	zero,zero,0
     458:	00000013          	addi	zero,zero,0
     45c:	00000013          	addi	zero,zero,0
     460:	00000013          	addi	zero,zero,0
     464:	00000013          	addi	zero,zero,0
     468:	00000013          	addi	zero,zero,0
     46c:	00000013          	addi	zero,zero,0
     470:	00000013          	addi	zero,zero,0
     474:	00000013          	addi	zero,zero,0
     478:	00000013          	addi	zero,zero,0
     47c:	00000013          	addi	zero,zero,0
     480:	00000013          	addi	zero,zero,0
     484:	00000013          	addi	zero,zero,0
     488:	00000013          	addi	zero,zero,0
     48c:	00000013          	addi	zero,zero,0
     490:	00000013          	addi	zero,zero,0
     494:	00000013          	addi	zero,zero,0
     498:	00000013          	addi	zero,zero,0
     49c:	00000013          	addi	zero,zero,0
     4a0:	00000013          	addi	zero,zero,0
     4a4:	00000013          	addi	zero,zero,0
     4a8:	00000013          	addi	zero,zero,0
     4ac:	00000013          	addi	zero,zero,0
     4b0:	00000013          	addi	zero,zero,0
     4b4:	00000013          	addi	zero,zero,0
     4b8:	00000013          	addi	zero,zero,0
     4bc:	00000013          	addi	zero,zero,0
     4c0:	00000013          	addi	zero,zero,0
     4c4:	00000013          	addi	zero,zero,0
     4c8:	00000013          	addi	zero,zero,0
     4cc:	00000013          	addi	zero,zero,0
     4d0:	00000013          	addi	zero,zero,0
     4d4:	00000013          	addi	zero,zero,0
     4d8:	00000013          	addi	zero,zero,0
     4dc:	00000013          	addi	zero,zero,0
     4e0:	00000013          	addi	zero,zero,0
     4e4:	00000013          	addi	zero,zero,0
     4e8:	00000013          	addi	zero,zero,0
     4ec:	00000013          	addi	zero,zero,0
     4f0:	00000013          	addi	zero,zero,0
     4f4:	00000013          	addi	zero,zero,0
     4f8:	00000013          	addi	zero,zero,0
     4fc:	00000013          	addi	zero,zero,0
     500:	00000013          	addi	zero,zero,0
     504:	00000013          	addi	zero,zero,0
     508:	00000013          	addi	zero,zero,0
     50c:	00000013          	addi	zero,zero,0
     510:	00000013          	addi	zero,zero,0
     514:	00000013          	addi	zero,zero,0
     518:	00000013          	addi	zero,zero,0
     51c:	00000013          	addi	zero,zero,0
     520:	00000013          	addi	zero,zero,0
     524:	00000013          	addi	zero,zero,0
     528:	00000013          	addi	zero,zero,0
     52c:	00000013          	addi	zero,zero,0
     530:	00000013          	addi	zero,zero,0
     534:	00000013          	addi	zero,zero,0
     538:	00000013          	addi	zero,zero,0
     53c:	00000013          	addi	zero,zero,0
     540:	00000013          	addi	zero,zero,0
     544:	00000013          	addi	zero,zero,0
     548:	00000013          	addi	zero,zero,0
     54c:	00000013          	addi	zero,zero,0
     550:	00000013          	addi	zero,zero,0
     554:	00000013          	addi	zero,zero,0
     558:	00000013          	addi	zero,zero,0
     55c:	00000013          	addi	zero,zero,0
     560:	00000013          	addi	zero,zero,0
     564:	00000013          	addi	zero,zero,0
     568:	00000013          	addi	zero,zero,0
     56c:	00000013          	addi	zero,zero,0
     570:	00000013          	addi	zero,zero,0
     574:	00000013          	addi	zero,zero,0
     578:	00000013          	addi	zero,zero,0
     57c:	00000013          	addi	zero,zero,0
     580:	00000013          	addi	zero,zero,0
     584:	00000013          	addi	zero,zero,0
     588:	00000013          	addi	zero,zero,0
     58c:	00000013          	addi	zero,zero,0
     590:	00000013          	addi	zero,zero,0
     594:	00000013          	addi	zero,zero,0
     598:	00000013          	addi	zero,zero,0
     59c:	00000013          	addi	zero,zero,0
     5a0:	00000013          	addi	zero,zero,0
     5a4:	00000013          	addi	zero,zero,0
     5a8:	00000013          	addi	zero,zero,0
     5ac:	00000013          	addi	zero,zero,0
     5b0:	00000013          	addi	zero,zero,0
     5b4:	00000013          	addi	zero,zero,0
     5b8:	00000013          	addi	zero,zero,0
     5bc:	00000013          	addi	zero,zero,0
     5c0:	00000013          	addi	zero,zero,0
     5c4:	00000013          	addi	zero,zero,0
     5c8:	00000013          	addi	zero,zero,0
     5cc:	00000013          	addi	zero,zero,0
     5d0:	00000013          	addi	zero,zero,0
     5d4:	00000013          	addi	zero,zero,0
     5d8:	00000013          	addi	zero,zero,0
     5dc:	00000013          	addi	zero,zero,0
     5e0:	00000013          	addi	zero,zero,0
     5e4:	00000013          	addi	zero,zero,0
     5e8:	00000013          	addi	zero,zero,0
     5ec:	00000013          	addi	zero,zero,0
     5f0:	00000013          	addi	zero,zero,0
     5f4:	00000013          	addi	zero,zero,0
     5f8:	00000013          	addi	zero,zero,0
     5fc:	00000013          	addi	zero,zero,0
     600:	00000013          	addi	zero,zero,0
     604:	00000013          	addi	zero,zero,0
     608:	00000013          	addi	zero,zero,0
     60c:	00000013          	addi	zero,zero,0
     610:	00000013          	addi	zero,zero,0
     614:	00000013          	addi	zero,zero,0
     618:	00000013          	addi	zero,zero,0
     61c:	00000013          	addi	zero,zero,0
     620:	00000013          	addi	zero,zero,0
     624:	00000013          	addi	zero,zero,0
     628:	00000013          	addi	zero,zero,0
     62c:	00000013          	addi	zero,zero,0
     630:	00000013          	addi	zero,zero,0
     634:	00000013          	addi	zero,zero,0
     638:	00000013          	addi	zero,zero,0
     63c:	00000013          	addi	zero,zero,0
     640:	00000013          	addi	zero,zero,0
     644:	00000013          	addi	zero,zero,0
     648:	00000013          	addi	zero,zero,0
     64c:	00000013          	addi	zero,zero,0
     650:	00000013          	addi	zero,zero,0
     654:	00000013          	addi	zero,zero,0
     658:	00000013          	addi	zero,zero,0
     65c:	00000013          	addi	zero,zero,0
     660:	00000013          	addi	zero,zero,0
     664:	00000013          	addi	zero,zero,0
     668:	00000013          	addi	zero,zero,0
     66c:	00000013          	addi	zero,zero,0
     670:	00000013          	addi	zero,zero,0
     674:	00000013          	addi	zero,zero,0
     678:	00000013          	addi	zero,zero,0
     67c:	00000013          	addi	zero,zero,0
     680:	00000013          	addi	zero,zero,0
     684:	00000013          	addi	zero,zero,0
     688:	00000013          	addi	zero,zero,0
     68c:	00000013          	addi	zero,zero,0
     690:	00000013          	addi	zero,zero,0
     694:	00000013          	addi	zero,zero,0
     698:	00000013          	addi	zero,zero,0
     69c:	00000013          	addi	zero,zero,0
     6a0:	00000013          	addi	zero,zero,0
     6a4:	00000013          	addi	zero,zero,0
     6a8:	00000013          	addi	zero,zero,0
     6ac:	00000013          	addi	zero,zero,0
     6b0:	00000013          	addi	zero,zero,0
     6b4:	00000013          	addi	zero,zero,0
     6b8:	00000013          	addi	zero,zero,0
     6bc:	00000013          	addi	zero,zero,0
     6c0:	00000013          	addi	zero,zero,0
     6c4:	00000013          	addi	zero,zero,0
     6c8:	00000013          	addi	zero,zero,0
     6cc:	00000013          	addi	zero,zero,0
     6d0:	00000013          	addi	zero,zero,0
     6d4:	00000013          	addi	zero,zero,0
     6d8:	00000013          	addi	zero,zero,0
     6dc:	00000013          	addi	zero,zero,0
     6e0:	00000013          	addi	zero,zero,0
     6e4:	00000013          	addi	zero,zero,0
     6e8:	00000013          	addi	zero,zero,0
     6ec:	00000013          	addi	zero,zero,0
     6f0:	00000013          	addi	zero,zero,0
     6f4:	00000013          	addi	zero,zero,0
     6f8:	00000013          	addi	zero,zero,0
     6fc:	00000013          	addi	zero,zero,0
     700:	00000013          	addi	zero,zero,0
     704:	00000013          	addi	zero,zero,0
     708:	00000013          	addi	zero,zero,0
     70c:	00000013          	addi	zero,zero,0
     710:	00000013          	addi	zero,zero,0
     714:	00000013          	addi	zero,zero,0
     718:	00000013          	addi	zero,zero,0
     71c:	00000013          	addi	zero,zero,0
     720:	00000013          	addi	zero,zero,0
     724:	00000013          	addi	zero,zero,0
     728:	00000013          	addi	zero,zero,0
     72c:	00000013          	addi	zero,zero,0
     730:	00000013          	addi	zero,zero,0
     734:	00000013          	addi	zero,zero,0
     738:	00000013          	addi	zero,zero,0
     73c:	00000013          	addi	zero,zero,0
     740:	00000013          	addi	zero,zero,0
     744:	00000013          	addi	zero,zero,0
     748:	00000013          	addi	zero,zero,0
     74c:	00000013          	addi	zero,zero,0
     750:	00000013          	addi	zero,zero,0
     754:	00000013          	addi	zero,zero,0
     758:	00000013          	addi	zero,zero,0
     75c:	00000013          	addi	zero,zero,0
     760:	00000013          	addi	zero,zero,0
     764:	00000013          	addi	zero,zero,0
     768:	00000013          	addi	zero,zero,0
     76c:	00000013          	addi	zero,zero,0
     770:	00000013          	addi	zero,zero,0
     774:	00000013          	addi	zero,zero,0
     778:	00000013          	addi	zero,zero,0
     77c:	00000013          	addi	zero,zero,0
     780:	00000013          	addi	zero,zero,0
     784:	00000013          	addi	zero,zero,0
     788:	00000013          	addi	zero,zero,0
     78c:	00000013          	addi	zero,zero,0
     790:	00000013          	addi	zero,zero,0
     794:	00000013          	addi	zero,zero,0
     798:	00000013          	addi	zero,zero,0
     79c:	00000013          	addi	zero,zero,0
     7a0:	00000013          	addi	zero,zero,0
     7a4:	00000013          	addi	zero,zero,0
     7a8:	00000013          	addi	zero,zero,0
     7ac:	00000013          	addi	zero,zero,0
     7b0:	00000013          	addi	zero,zero,0
     7b4:	00000013          	addi	zero,zero,0
     7b8:	00000013          	addi	zero,zero,0
     7bc:	00000013          	addi	zero,zero,0
     7c0:	00000013          	addi	zero,zero,0
     7c4:	00000013          	addi	zero,zero,0
     7c8:	00000013          	addi	zero,zero,0
     7cc:	00000013          	addi	zero,zero,0
     7d0:	00000013          	addi	zero,zero,0
     7d4:	00000013          	addi	zero,zero,0
     7d8:	00000013          	addi	zero,zero,0
     7dc:	00000013          	addi	zero,zero,0
     7e0:	00000013          	addi	zero,zero,0
     7e4:	00000013          	addi	zero,zero,0
     7e8:	00000013          	addi	zero,zero,0
     7ec:	00000013          	addi	zero,zero,0
     7f0:	00000013          	addi	zero,zero,0
     7f4:	00000013          	addi	zero,zero,0
     7f8:	00000013          	addi	zero,zero,0
     7fc:	00000013          	addi	zero,zero,0
     800:	00000013          	addi	zero,zero,0
     804:	00000013          	addi	zero,zero,0
     808:	00000013          	addi	zero,zero,0
     80c:	00000013          	addi	zero,zero,0
     810:	00000013          	addi	zero,zero,0
     814:	00000013          	addi	zero,zero,0
     818:	00000013          	addi	zero,zero,0
     81c:	00000013          	addi	zero,zero,0
     820:	00000013          	addi	zero,zero,0
     824:	00000013          	addi	zero,zero,0
     828:	00000013          	addi	zero,zero,0
     82c:	00000013          	addi	zero,zero,0
     830:	00000013          	addi	zero,zero,0
     834:	00000013          	addi	zero,zero,0
     838:	00000013          	addi	zero,zero,0
     83c:	00000013          	addi	zero,zero,0
     840:	00000013          	addi	zero,zero,0
     844:	00000013          	addi	zero,zero,0
     848:	00000013          	addi	zero,zero,0
     84c:	00000013          	addi	zero,zero,0
     850:	00000013          	addi	zero,zero,0
     854:	00000013          	addi	zero,zero,0
     858:	00000013          	addi	zero,zero,0
     85c:	00000013          	addi	zero,zero,0
     860:	00000013          	addi	zero,zero,0
     864:	00000013          	addi	zero,zero,0
     868:	00000013          	addi	zero,zero,0
     86c:	00000013          	addi	zero,zero,0
     870:	00000013          	addi	zero,zero,0
     874:	00000013          	addi	zero,zero,0
     878:	00000013          	addi	zero,zero,0
     87c:	00000013          	addi	zero,zero,0
     880:	00000013          	addi	zero,zero,0
     884:	00000013          	addi	zero,zero,0
     888:	00000013          	addi	zero,zero,0
     88c:	00000013          	addi	zero,zero,0
     890:	00000013          	addi	zero,zero,0
     894:	00000013          	addi	zero,zero,0
     898:	00000013          	addi	zero,zero,0
     89c:	00000013          	addi	zero,zero,0
     8a0:	00000013          	addi	zero,zero,0
     8a4:	00000013          	addi	zero,zero,0
     8a8:	00000013          	addi	zero,zero,0
     8ac:	00000013          	addi	zero,zero,0
     8b0:	00000013          	addi	zero,zero,0
     8b4:	00000013          	addi	zero,zero,0
     8b8:	00000013          	addi	zero,zero,0
     8bc:	00000013          	addi	zero,zero,0
     8c0:	00000013          	addi	zero,zero,0
     8c4:	00000013          	addi	zero,zero,0
     8c8:	00000013          	addi	zero,zero,0
     8cc:	00000013          	addi	zero,zero,0
     8d0:	00000013          	addi	zero,zero,0
     8d4:	00000013          	addi	zero,zero,0
     8d8:	00000013          	addi	zero,zero,0
     8dc:	00000013          	addi	zero,zero,0
     8e0:	00000013          	addi	zero,zero,0
     8e4:	00000013          	addi	zero,zero,0
     8e8:	00000013          	addi	zero,zero,0
     8ec:	00000013          	addi	zero,zero,0
     8f0:	00000013          	addi	zero,zero,0
     8f4:	00000013          	addi	zero,zero,0
     8f8:	00000013          	addi	zero,zero,0
     8fc:	00000013          	addi	zero,zero,0
     900:	00000013          	addi	zero,zero,0
     904:	00000013          	addi	zero,zero,0
     908:	00000013          	addi	zero,zero,0
     90c:	00000013          	addi	zero,zero,0
     910:	00000013          	addi	zero,zero,0
     914:	00000013          	addi	zero,zero,0
     918:	00000013          	addi	zero,zero,0
     91c:	00000013          	addi	zero,zero,0
     920:	00000013          	addi	zero,zero,0
     924:	00000013          	addi	zero,zero,0
     928:	00000013          	addi	zero,zero,0
     92c:	00000013          	addi	zero,zero,0
     930:	00000013          	addi	zero,zero,0
     934:	00000013          	addi	zero,zero,0
     938:	00000013          	addi	zero,zero,0
     93c:	00000013          	addi	zero,zero,0
     940:	00000013          	addi	zero,zero,0
     944:	00000013          	addi	zero,zero,0
     948:	00000013          	addi	zero,zero,0
     94c:	00000013          	addi	zero,zero,0
     950:	00000013          	addi	zero,zero,0
     954:	00000013          	addi	zero,zero,0
     958:	00000013          	addi	zero,zero,0
     95c:	00000013          	addi	zero,zero,0
     960:	00000013          	addi	zero,zero,0
     964:	00000013          	addi	zero,zero,0
     968:	00000013          	addi	zero,zero,0
     96c:	00000013          	addi	zero,zero,0
     970:	00000013          	addi	zero,zero,0
     974:	00000013          	addi	zero,zero,0
     978:	00000013          	addi	zero,zero,0
     97c:	00000013          	addi	zero,zero,0
     980:	00000013          	addi	zero,zero,0
     984:	00000013          	addi	zero,zero,0
     988:	00000013          	addi	zero,zero,0
     98c:	00000013          	addi	zero,zero,0
     990:	00000013          	addi	zero,zero,0
     994:	00000013          	addi	zero,zero,0
     998:	00000013          	addi	zero,zero,0
     99c:	00000013          	addi	zero,zero,0
     9a0:	00000013          	addi	zero,zero,0
     9a4:	00000013          	addi	zero,zero,0
     9a8:	00000013          	addi	zero,zero,0
     9ac:	00000013          	addi	zero,zero,0
     9b0:	00000013          	addi	zero,zero,0
     9b4:	00000013          	addi	zero,zero,0
     9b8:	00000013          	addi	zero,zero,0
     9bc:	00000013          	addi	zero,zero,0
     9c0:	00000013          	addi	zero,zero,0
     9c4:	00000013          	addi	zero,zero,0
     9c8:	00000013          	addi	zero,zero,0
     9cc:	00000013          	addi	zero,zero,0
     9d0:	00000013          	addi	zero,zero,0
     9d4:	00000013          	addi	zero,zero,0
     9d8:	00000013          	addi	zero,zero,0
     9dc:	00000013          	addi	zero,zero,0
     9e0:	00000013          	addi	zero,zero,0
     9e4:	00000013          	addi	zero,zero,0
     9e8:	00000013          	addi	zero,zero,0
     9ec:	00000013          	addi	zero,zero,0
     9f0:	00000013          	addi	zero,zero,0
     9f4:	00000013          	addi	zero,zero,0
     9f8:	00000013          	addi	zero,zero,0
     9fc:	00000013          	addi	zero,zero,0
     a00:	00000013          	addi	zero,zero,0
     a04:	00000013          	addi	zero,zero,0
     a08:	00000013          	addi	zero,zero,0
     a0c:	00000013          	addi	zero,zero,0
     a10:	00000013          	addi	zero,zero,0
     a14:	00000013          	addi	zero,zero,0
     a18:	00000013          	addi	zero,zero,0
     a1c:	00000013          	addi	zero,zero,0
     a20:	00000013          	addi	zero,zero,0
     a24:	00000013          	addi	zero,zero,0
     a28:	00000013          	addi	zero,zero,0
     a2c:	00000013          	addi	zero,zero,0
     a30:	00000013          	addi	zero,zero,0
     a34:	00000013          	addi	zero,zero,0
     a38:	00000013          	addi	zero,zero,0
     a3c:	00000013          	addi	zero,zero,0
     a40:	00000013          	addi	zero,zero,0
     a44:	00000013          	addi	zero,zero,0
     a48:	00000013          	addi	zero,zero,0
     a4c:	00000013          	addi	zero,zero,0
     a50:	00000013          	addi	zero,zero,0
     a54:	00000013          	addi	zero,zero,0
     a58:	00000013          	addi	zero,zero,0
     a5c:	00000013          	addi	zero,zero,0
     a60:	00000013          	addi	zero,zero,0
     a64:	00000013          	addi	zero,zero,0
     a68:	00000013          	addi	zero,zero,0
     a6c:	00000013          	addi	zero,zero,0
     a70:	00000013          	addi	zero,zero,0
     a74:	00000013          	addi	zero,zero,0
     a78:	00000013          	addi	zero,zero,0
     a7c:	00000013          	addi	zero,zero,0
     a80:	00000013          	addi	zero,zero,0
     a84:	00000013          	addi	zero,zero,0
     a88:	00000013          	addi	zero,zero,0
     a8c:	00000013          	addi	zero,zero,0
     a90:	00000013          	addi	zero,zero,0
     a94:	00000013          	addi	zero,zero,0
     a98:	00000013          	addi	zero,zero,0
     a9c:	00000013          	addi	zero,zero,0
     aa0:	00000013          	addi	zero,zero,0
     aa4:	00000013          	addi	zero,zero,0
     aa8:	00000013          	addi	zero,zero,0
     aac:	00000013          	addi	zero,zero,0
     ab0:	00000013          	addi	zero,zero,0
     ab4:	00000013          	addi	zero,zero,0
     ab8:	00000013          	addi	zero,zero,0
     abc:	00000013          	addi	zero,zero,0
     ac0:	00000013          	addi	zero,zero,0
     ac4:	00000013          	addi	zero,zero,0
     ac8:	00000013          	addi	zero,zero,0
     acc:	00000013          	addi	zero,zero,0
     ad0:	00000013          	addi	zero,zero,0
     ad4:	00000013          	addi	zero,zero,0
     ad8:	00000013          	addi	zero,zero,0
     adc:	00000013          	addi	zero,zero,0
     ae0:	00000013          	addi	zero,zero,0
     ae4:	00000013          	addi	zero,zero,0
     ae8:	00000013          	addi	zero,zero,0
     aec:	00000013          	addi	zero,zero,0
     af0:	00000013          	addi	zero,zero,0
     af4:	00000013          	addi	zero,zero,0
     af8:	00000013          	addi	zero,zero,0
     afc:	00000013          	addi	zero,zero,0
     b00:	00000013          	addi	zero,zero,0
     b04:	00000013          	addi	zero,zero,0
     b08:	00000013          	addi	zero,zero,0
     b0c:	00000013          	addi	zero,zero,0
     b10:	00000013          	addi	zero,zero,0
     b14:	00000013          	addi	zero,zero,0
     b18:	00000013          	addi	zero,zero,0
     b1c:	00000013          	addi	zero,zero,0
     b20:	00000013          	addi	zero,zero,0
     b24:	00000013          	addi	zero,zero,0
     b28:	00000013          	addi	zero,zero,0
     b2c:	00000013          	addi	zero,zero,0
     b30:	00000013          	addi	zero,zero,0
     b34:	00000013          	addi	zero,zero,0
     b38:	00000013          	addi	zero,zero,0
     b3c:	00000013          	addi	zero,zero,0
     b40:	00000013          	addi	zero,zero,0
     b44:	00000013          	addi	zero,zero,0
     b48:	00000013          	addi	zero,zero,0
     b4c:	00000013          	addi	zero,zero,0
     b50:	00000013          	addi	zero,zero,0
     b54:	00000013          	addi	zero,zero,0
     b58:	00000013          	addi	zero,zero,0
     b5c:	00000013          	addi	zero,zero,0
     b60:	00000013          	addi	zero,zero,0
     b64:	00000013          	addi	zero,zero,0
     b68:	00000013          	addi	zero,zero,0
     b6c:	00000013          	addi	zero,zero,0
     b70:	00000013          	addi	zero,zero,0
     b74:	00000013          	addi	zero,zero,0
     b78:	00000013          	addi	zero,zero,0
     b7c:	00000013          	addi	zero,zero,0
     b80:	00000013          	addi	zero,zero,0
     b84:	00000013          	addi	zero,zero,0
     b88:	00000013          	addi	zero,zero,0
     b8c:	00000013          	addi	zero,zero,0
     b90:	00000013          	addi	zero,zero,0
     b94:	00000013          	addi	zero,zero,0
     b98:	00000013          	addi	zero,zero,0
     b9c:	00000013          	addi	zero,zero,0
     ba0:	00000013          	addi	zero,zero,0
     ba4:	00000013          	addi	zero,zero,0
     ba8:	00000013          	addi	zero,zero,0
     bac:	00000013          	addi	zero,zero,0
     bb0:	00000013          	addi	zero,zero,0
     bb4:	00000013          	addi	zero,zero,0
     bb8:	00000013          	addi	zero,zero,0
     bbc:	00000013          	addi	zero,zero,0
     bc0:	00000013          	addi	zero,zero,0
     bc4:	00000013          	addi	zero,zero,0
     bc8:	00000013          	addi	zero,zero,0
     bcc:	00000013          	addi	zero,zero,0
     bd0:	00000013          	addi	zero,zero,0
     bd4:	00000013          	addi	zero,zero,0
     bd8:	00000013          	addi	zero,zero,0
     bdc:	00000013          	addi	zero,zero,0
     be0:	00000013          	addi	zero,zero,0
     be4:	00000013          	addi	zero,zero,0
     be8:	00000013          	addi	zero,zero,0
     bec:	00000013          	addi	zero,zero,0
     bf0:	00000013          	addi	zero,zero,0
     bf4:	00000013          	addi	zero,zero,0
     bf8:	00000013          	addi	zero,zero,0
     bfc:	00000013          	addi	zero,zero,0
     c00:	00000013          	addi	zero,zero,0
     c04:	00000013          	addi	zero,zero,0
     c08:	00000013          	addi	zero,zero,0
     c0c:	00000013          	addi	zero,zero,0
     c10:	00000013          	addi	zero,zero,0
     c14:	00000013          	addi	zero,zero,0
     c18:	00000013          	addi	zero,zero,0
     c1c:	00000013          	addi	zero,zero,0
     c20:	00000013          	addi	zero,zero,0
     c24:	00000013          	addi	zero,zero,0
     c28:	00000013          	addi	zero,zero,0
     c2c:	00000013          	addi	zero,zero,0
     c30:	00000013          	addi	zero,zero,0
     c34:	00000013          	addi	zero,zero,0
     c38:	00000013          	addi	zero,zero,0
     c3c:	00000013          	addi	zero,zero,0
     c40:	00000013          	addi	zero,zero,0
     c44:	00000013          	addi	zero,zero,0
     c48:	00000013          	addi	zero,zero,0
     c4c:	00000013          	addi	zero,zero,0
     c50:	00000013          	addi	zero,zero,0
     c54:	00000013          	addi	zero,zero,0
     c58:	00000013          	addi	zero,zero,0
     c5c:	00000013          	addi	zero,zero,0
     c60:	00000013          	addi	zero,zero,0
     c64:	00000013          	addi	zero,zero,0
     c68:	00000013          	addi	zero,zero,0
     c6c:	00000013          	addi	zero,zero,0
     c70:	00000013          	addi	zero,zero,0
     c74:	00000013          	addi	zero,zero,0
     c78:	00000013          	addi	zero,zero,0
     c7c:	00000013          	addi	zero,zero,0
     c80:	00000013          	addi	zero,zero,0
     c84:	00000013          	addi	zero,zero,0
     c88:	00000013          	addi	zero,zero,0
     c8c:	00000013          	addi	zero,zero,0
     c90:	00000013          	addi	zero,zero,0
     c94:	00000013          	addi	zero,zero,0
     c98:	00000013          	addi	zero,zero,0
     c9c:	00000013          	addi	zero,zero,0
     ca0:	00000013          	addi	zero,zero,0
     ca4:	00000013          	addi	zero,zero,0
     ca8:	00000013          	addi	zero,zero,0
     cac:	00000013          	addi	zero,zero,0
     cb0:	00000013          	addi	zero,zero,0
     cb4:	00000013          	addi	zero,zero,0
     cb8:	00000013          	addi	zero,zero,0
     cbc:	00000013          	addi	zero,zero,0
     cc0:	00000013          	addi	zero,zero,0
     cc4:	00000013          	addi	zero,zero,0
     cc8:	00000013          	addi	zero,zero,0
     ccc:	00000013          	addi	zero,zero,0
     cd0:	00000013          	addi	zero,zero,0
     cd4:	00000013          	addi	zero,zero,0
     cd8:	00000013          	addi	zero,zero,0
     cdc:	00000013          	addi	zero,zero,0
     ce0:	00000013          	addi	zero,zero,0
     ce4:	00000013          	addi	zero,zero,0
     ce8:	00000013          	addi	zero,zero,0
     cec:	00000013          	addi	zero,zero,0
     cf0:	00000013          	addi	zero,zero,0
     cf4:	00000013          	addi	zero,zero,0
     cf8:	00000013          	addi	zero,zero,0
     cfc:	00000013          	addi	zero,zero,0
     d00:	00000013          	addi	zero,zero,0
     d04:	00000013          	addi	zero,zero,0
     d08:	00000013          	addi	zero,zero,0
     d0c:	00000013          	addi	zero,zero,0
     d10:	00000013          	addi	zero,zero,0
     d14:	00000013          	addi	zero,zero,0
     d18:	00000013          	addi	zero,zero,0
     d1c:	00000013          	addi	zero,zero,0
     d20:	00000013          	addi	zero,zero,0
     d24:	00000013          	addi	zero,zero,0
     d28:	00000013          	addi	zero,zero,0
     d2c:	00000013          	addi	zero,zero,0
     d30:	00000013          	addi	zero,zero,0
     d34:	00000013          	addi	zero,zero,0
     d38:	00000013          	addi	zero,zero,0
     d3c:	00000013          	addi	zero,zero,0
     d40:	00000013          	addi	zero,zero,0
     d44:	00000013          	addi	zero,zero,0
     d48:	00000013          	addi	zero,zero,0
     d4c:	00000013          	addi	zero,zero,0
     d50:	00000013          	addi	zero,zero,0
     d54:	00000013          	addi	zero,zero,0
     d58:	00000013          	addi	zero,zero,0
     d5c:	00000013          	addi	zero,zero,0
     d60:	00000013          	addi	zero,zero,0
     d64:	00000013          	addi	zero,zero,0
     d68:	00000013          	addi	zero,zero,0
     d6c:	00000013          	addi	zero,zero,0
     d70:	00000013          	addi	zero,zero,0
     d74:	00000013          	addi	zero,zero,0
     d78:	00000013          	addi	zero,zero,0
     d7c:	00000013          	addi	zero,zero,0
     d80:	00000013          	addi	zero,zero,0
     d84:	00000013          	addi	zero,zero,0
     d88:	00000013          	addi	zero,zero,0
     d8c:	00000013          	addi	zero,zero,0
     d90:	00000013          	addi	zero,zero,0
     d94:	00000013          	addi	zero,zero,0
     d98:	00000013          	addi	zero,zero,0
     d9c:	00000013          	addi	zero,zero,0
     da0:	00000013          	addi	zero,zero,0
     da4:	00000013          	addi	zero,zero,0
     da8:	00000013          	addi	zero,zero,0
     dac:	00000013          	addi	zero,zero,0
     db0:	00000013          	addi	zero,zero,0
     db4:	00000013          	addi	zero,zero,0
     db8:	00000013          	addi	zero,zero,0
     dbc:	00000013          	addi	zero,zero,0
     dc0:	00000013          	addi	zero,zero,0
     dc4:	00000013          	addi	zero,zero,0
     dc8:	00000013          	addi	zero,zero,0
     dcc:	00000013          	addi	zero,zero,0
     dd0:	00000013          	addi	zero,zero,0
     dd4:	00000013          	addi	zero,zero,0
     dd8:	00000013          	addi	zero,zero,0
     ddc:	00000013          	addi	zero,zero,0
     de0:	00000013          	addi	zero,zero,0
     de4:	00000013          	addi	zero,zero,0
     de8:	00000013          	addi	zero,zero,0
     dec:	00000013          	addi	zero,zero,0
     df0:	00000013          	addi	zero,zero,0
     df4:	00000013          	addi	zero,zero,0
     df8:	00000013          	addi	zero,zero,0
     dfc:	00000013          	addi	zero,zero,0
     e00:	00000013          	addi	zero,zero,0
     e04:	00000013          	addi	zero,zero,0
     e08:	00000013          	addi	zero,zero,0
     e0c:	00000013          	addi	zero,zero,0
     e10:	00000013          	addi	zero,zero,0
     e14:	00000013          	addi	zero,zero,0
     e18:	00000013          	addi	zero,zero,0
     e1c:	00000013          	addi	zero,zero,0
     e20:	00000013          	addi	zero,zero,0
     e24:	00000013          	addi	zero,zero,0
     e28:	00000013          	addi	zero,zero,0
     e2c:	00000013          	addi	zero,zero,0
     e30:	00000013          	addi	zero,zero,0
     e34:	00000013          	addi	zero,zero,0
     e38:	00000013          	addi	zero,zero,0
     e3c:	00000013          	addi	zero,zero,0
     e40:	00000013          	addi	zero,zero,0
     e44:	00000013          	addi	zero,zero,0
     e48:	00000013          	addi	zero,zero,0
     e4c:	00000013          	addi	zero,zero,0
     e50:	00000013          	addi	zero,zero,0
     e54:	00000013          	addi	zero,zero,0
     e58:	00000013          	addi	zero,zero,0
     e5c:	00000013          	addi	zero,zero,0
     e60:	00000013          	addi	zero,zero,0
     e64:	00000013          	addi	zero,zero,0
     e68:	00000013          	addi	zero,zero,0
     e6c:	00000013          	addi	zero,zero,0
     e70:	00000013          	addi	zero,zero,0
     e74:	00000013          	addi	zero,zero,0
     e78:	00000013          	addi	zero,zero,0
     e7c:	00000013          	addi	zero,zero,0
     e80:	00000013          	addi	zero,zero,0
     e84:	00000013          	addi	zero,zero,0
     e88:	00000013          	addi	zero,zero,0
     e8c:	00000013          	addi	zero,zero,0
     e90:	00000013          	addi	zero,zero,0
     e94:	00000013          	addi	zero,zero,0
     e98:	00000013          	addi	zero,zero,0
     e9c:	00000013          	addi	zero,zero,0
     ea0:	00000013          	addi	zero,zero,0
     ea4:	00000013          	addi	zero,zero,0
     ea8:	00000013          	addi	zero,zero,0
     eac:	00000013          	addi	zero,zero,0
     eb0:	00000013          	addi	zero,zero,0
     eb4:	00000013          	addi	zero,zero,0
     eb8:	00000013          	addi	zero,zero,0
     ebc:	00000013          	addi	zero,zero,0
     ec0:	00000013          	addi	zero,zero,0
     ec4:	00000013          	addi	zero,zero,0
     ec8:	00000013          	addi	zero,zero,0
     ecc:	00000013          	addi	zero,zero,0
     ed0:	00000013          	addi	zero,zero,0
     ed4:	00000013          	addi	zero,zero,0
     ed8:	00000013          	addi	zero,zero,0
     edc:	00000013          	addi	zero,zero,0
     ee0:	00000013          	addi	zero,zero,0
     ee4:	00000013          	addi	zero,zero,0
     ee8:	00000013          	addi	zero,zero,0
     eec:	00000013          	addi	zero,zero,0
     ef0:	00000013          	addi	zero,zero,0
     ef4:	00000013          	addi	zero,zero,0
     ef8:	00000013          	addi	zero,zero,0
     efc:	00000013          	addi	zero,zero,0
     f00:	00000013          	addi	zero,zero,0
     f04:	00000013          	addi	zero,zero,0
     f08:	00000013          	addi	zero,zero,0
     f0c:	00000013          	addi	zero,zero,0
     f10:	00000013          	addi	zero,zero,0
     f14:	00000013          	addi	zero,zero,0
     f18:	00000013          	addi	zero,zero,0
     f1c:	00000013          	addi	zero,zero,0
     f20:	00000013          	addi	zero,zero,0
     f24:	00000013          	addi	zero,zero,0
     f28:	00000013          	addi	zero,zero,0
     f2c:	00000013          	addi	zero,zero,0
     f30:	00000013          	addi	zero,zero,0
     f34:	00000013          	addi	zero,zero,0
     f38:	00000013          	addi	zero,zero,0
     f3c:	00000013          	addi	zero,zero,0
     f40:	00000013          	addi	zero,zero,0
     f44:	00000013          	addi	zero,zero,0
     f48:	00000013          	addi	zero,zero,0
     f4c:	00000013          	addi	zero,zero,0
     f50:	00000013          	addi	zero,zero,0
     f54:	00000013          	addi	zero,zero,0
     f58:	00000013          	addi	zero,zero,0
     f5c:	00000013          	addi	zero,zero,0
     f60:	00000013          	addi	zero,zero,0
     f64:	00000013          	addi	zero,zero,0
     f68:	00000013          	addi	zero,zero,0
     f6c:	00000013          	addi	zero,zero,0
     f70:	00000013          	addi	zero,zero,0
     f74:	00000013          	addi	zero,zero,0
     f78:	00000013          	addi	zero,zero,0
     f7c:	00000013          	addi	zero,zero,0
     f80:	00000013          	addi	zero,zero,0
     f84:	00000013          	addi	zero,zero,0
     f88:	00000013          	addi	zero,zero,0
     f8c:	00000013          	addi	zero,zero,0
     f90:	00000013          	addi	zero,zero,0
     f94:	00000013          	addi	zero,zero,0
     f98:	00000013          	addi	zero,zero,0
     f9c:	00000013          	addi	zero,zero,0
     fa0:	00000013          	addi	zero,zero,0
     fa4:	00000013          	addi	zero,zero,0
     fa8:	00000013          	addi	zero,zero,0
     fac:	00000013          	addi	zero,zero,0
     fb0:	00000013          	addi	zero,zero,0
     fb4:	00000013          	addi	zero,zero,0
     fb8:	00000013          	addi	zero,zero,0
     fbc:	00000013          	addi	zero,zero,0
     fc0:	00000013          	addi	zero,zero,0
     fc4:	00000013          	addi	zero,zero,0
     fc8:	00000013          	addi	zero,zero,0
     fcc:	00000013          	addi	zero,zero,0
     fd0:	00000013          	addi	zero,zero,0
     fd4:	00000013          	addi	zero,zero,0
     fd8:	00000013          	addi	zero,zero,0
     fdc:	00000013          	addi	zero,zero,0
     fe0:	00000013          	addi	zero,zero,0
     fe4:	00000013          	addi	zero,zero,0
     fe8:	00000013          	addi	zero,zero,0
     fec:	00000013          	addi	zero,zero,0
     ff0:	00000013          	addi	zero,zero,0
     ff4:	00000013          	addi	zero,zero,0
     ff8:	00000013          	addi	zero,zero,0
     ffc:	00000013          	addi	zero,zero,0
    1000:	00000013          	addi	zero,zero,0
    1004:	00000013          	addi	zero,zero,0
    1008:	00000013          	addi	zero,zero,0
    100c:	00000013          	addi	zero,zero,0
    1010:	00000013          	addi	zero,zero,0
    1014:	00000013          	addi	zero,zero,0
    1018:	00000013          	addi	zero,zero,0
    101c:	00000013          	addi	zero,zero,0
    1020:	00000013          	addi	zero,zero,0
    1024:	00000013          	addi	zero,zero,0
    1028:	00000013          	addi	zero,zero,0
    102c:	00000013          	addi	zero,zero,0
    1030:	00000013          	addi	zero,zero,0
    1034:	00000013          	addi	zero,zero,0
    1038:	00000013          	addi	zero,zero,0
    103c:	00000013          	addi	zero,zero,0
    1040:	00000013          	addi	zero,zero,0
    1044:	00000013          	addi	zero,zero,0
    1048:	00000013          	addi	zero,zero,0
    104c:	00000013          	addi	zero,zero,0
    1050:	00000013          	addi	zero,zero,0
    1054:	00000013          	addi	zero,zero,0
    1058:	00000013          	addi	zero,zero,0
    105c:	00000013          	addi	zero,zero,0
    1060:	fa1fe06f          	jal	zero,0 <_start>

Disassembly of section .data:

00001064 <hello>:
    1064:	6568                	.2byte	0x6568
    1066:	6c6c                	.2byte	0x6c6c
    1068:	6f77206f          	jal	zero,73f5e <hello_exc+0x72eed>
    106c:	6c72                	.2byte	0x6c72
    106e:	0a64                	.2byte	0xa64
	...

00001071 <hello_exc>:
    1071:	6568                	.2byte	0x6568
    1073:	6c6c                	.2byte	0x6c6c
    1075:	7266206f          	jal	zero,6379b <hello_exc+0x6272a>
    1079:	65206d6f          	jal	s10,76cb <hello_exc+0x665a>
    107d:	6378                	.2byte	0x6378
    107f:	7065                	.2byte	0x7065
    1081:	6974                	.2byte	0x6974
    1083:	000a6e6f          	jal	t3,a7083 <hello_exc+0xa6012>

Disassembly of section .riscv.attributes:

00000000 <.riscv.attributes>:
   0:	3241                	.2byte	0x3241
   2:	0000                	.2byte	0x0
   4:	7200                	.2byte	0x7200
   6:	7369                	.2byte	0x7369
   8:	01007663          	bgeu	zero,a6,14 <_start+0x14>
   c:	0028                	.2byte	0x28
   e:	0000                	.2byte	0x0
  10:	7205                	.2byte	0x7205
  12:	3376                	.2byte	0x3376
  14:	6932                	.2byte	0x6932
  16:	7032                	.2byte	0x7032
  18:	5f31                	.2byte	0x5f31
  1a:	697a                	.2byte	0x697a
  1c:	32727363          	bgeu	tp,t2,342 <end+0x2e6>
  20:	3070                	.2byte	0x3070
  22:	7a5f 6669 6e65      	.byte	0x5f, 0x7a, 0x69, 0x66, 0x65, 0x6e
  28:	32696563          	bltu	s2,t1,352 <end+0x2f6>
  2c:	3070                	.2byte	0x3070
  2e:	0800                	.2byte	0x800
  30:	0a01                	.2byte	0xa01
  32:	0b              	Address 0x32 is out of bounds.

